Certificate:
    Data:
        Version: 3 (0x2)
        Serial Number:
            39:25:ca:6f:95:99:37:cc:1e:8b:44:f9:98:8a:9c:ba
        Signature Algorithm: ecdsa-with-SHA512
        Issuer: C=DE, O=Root CA, CN=TSE-Sim-Root
        Validity
            Not Before: Dec  9 16:17:01 2019 GMT
            Not After : Dec  4 16:17:01 2039 GMT
        Subject: C=DE, O=Sub CA, CN=TSE-Sim-Sub
        Subject Public Key Info:
            Public Key Algorithm: id-ecPublicKey
                Public-Key: (512 bit)
                pub:
                    04:6c:cd:b2:54:14:ac:15:58:e2:d9:dc:7d:2e:fb:
                    7e:45:5f:22:9f:d3:b2:f5:62:11:30:38:84:2a:eb:
                    c2:e6:0e:bf:a5:49:24:5a:55:77:f1:bf:43:5a:cb:
                    e6:9a:25:b0:3f:a7:d5:fa:af:9c:3f:fd:16:a2:de:
                    b4:a3:ce:e8:66:1e:b2:a5:c8:6f:d6:82:68:26:8b:
                    e4:ae:56:0b:84:9c:20:c8:c7:61:0a:c5:9e:ab:58:
                    dc:e4:23:44:76:1c:82:d6:db:b9:fa:19:3f:c6:27:
                    8a:66:24:f4:48:a5:33:6c:ee:ec:e3:aa:a4:56:d6:
                    70:d5:36:61:ea:14:ad:15:30
                ASN1 OID: brainpoolP512r1
        X509v3 extensions:
            X509v3 Basic Constraints: critical
                CA:TRUE, pathlen:0
            X509v3 CRL Distribution Points: 

                Full Name:
                  URI:http://root-ca.dummydomain.tse-sim-root.de/root-ca.crl

            X509v3 Key Usage: critical
                Certificate Sign, CRL Sign
            X509v3 Private Key Usage Period: 
                Not Before: Dec  9 12:00:00 2019 GMT, Not After: Dec  9 12:00:00 2021 GMT
            X509v3 Subject Key Identifier: 
                C9:91:06:7A:52:67:EB:E7:A9:07:78:DE:E6:CE:C6:FA:F8:EA:FC:2D
    Signature Algorithm: ecdsa-with-SHA512
         30:81:84:02:40:0d:b6:f5:38:fd:8b:b9:3d:31:30:ee:25:d1:
         a7:60:8e:ff:01:2e:a2:8a:84:06:06:68:a6:aa:dd:f8:8e:77:
         12:6b:8a:7b:75:44:5c:80:b9:6b:63:80:eb:d6:4f:d7:46:df:
         08:7d:c6:99:75:56:41:ce:da:33:2a:60:90:29:a7:02:40:53:
         b6:d3:a3:d8:02:05:8c:49:13:9b:ec:3b:21:5b:ae:44:49:6a:
         22:fd:1f:c8:40:d5:92:93:d4:06:a6:7c:1d:79:c1:87:e3:6b:
         30:ff:3b:8e:ae:27:0a:83:5c:6e:3a:a6:f7:d7:b9:4c:d5:6d:
         79:84:26:ee:5b:0a:d9:b8:38
-----BEGIN CERTIFICATE-----
MIICrTCCAhKgAwIBAgIQOSXKb5WZN8wei0T5mIqcujAKBggqhkjOPQQDBDA2MQsw
CQYDVQQGEwJERTEQMA4GA1UECgwHUm9vdCBDQTEVMBMGA1UEAwwMVFNFLVNpbS1S
b290MB4XDTE5MTIwOTE2MTcwMVoXDTM5MTIwNDE2MTcwMVowNDELMAkGA1UEBhMC
REUxDzANBgNVBAoMBlN1YiBDQTEUMBIGA1UEAwwLVFNFLVNpbS1TdWIwgZswFAYH
KoZIzj0CAQYJKyQDAwIIAQENA4GCAARszbJUFKwVWOLZ3H0u+35FXyKf07L1YhEw
OIQq68LmDr+lSSRaVXfxv0Nay+aaJbA/p9X6r5w//Rai3rSjzuhmHrKlyG/Wgmgm
i+SuVguEnCDIx2EKxZ6rWNzkI0R2HILW27n6GT/GJ4pmJPRIpTNs7uzjqqRW1nDV
NmHqFK0VMKOBwDCBvTASBgNVHRMBAf8ECDAGAQH/AgEAMEcGA1UdHwRAMD4wPKA6
oDiGNmh0dHA6Ly9yb290LWNhLmR1bW15ZG9tYWluLnRzZS1zaW0tcm9vdC5kZS9y
b290LWNhLmNybDAOBgNVHQ8BAf8EBAMCAQYwLwYDVR0QBCgwJqARGA8yMDE5MTIw
OTEyMDAwMFqhERgPMjAyMTEyMDkxMjAwMDBaMB0GA1UdDgQWBBTJkQZ6Umfr56kH
eN7mzsb6+Or8LTAKBggqhkjOPQQDBAOBiAAwgYQCQA229Tj9i7k9MTDuJdGnYI7/
AS6iioQGBmimqt34jncSa4p7dURcgLlrY4Dr1k/XRt8IfcaZdVZBztozKmCQKacC
QFO206PYAgWMSROb7DshW65ESWoi/R/IQNWSk9QGpnwdecGH42sw/zuOricKg1xu
Oqb317lM1W15hCbuWwrZuDg=
-----END CERTIFICATE-----
