Certificate:
    Data:
        Version: 3 (0x2)
        Serial Number:
            39:25:ca:6f:95:99:37:cc:1e:8b:44:f9:98:8a:9c:bc
        Signature Algorithm: ecdsa-with-SHA512
        Issuer: C=DE, O=Sub CA, CN=TSE-Sim-Sub
        Validity
            Not Before: Dec 16 10:26:17 2019 GMT
            Not After : Dec 11 10:26:17 2037 GMT
        Subject: C=DE, O=TSE-Sim-Manufacturer, CN=TSE-Simulator, ST=NRW, OU=TSE-Sim-Development-Branch
        Subject Public Key Info:
            Public Key Algorithm: id-ecPublicKey
                Public-Key: (512 bit)
                pub:
                    04:62:0c:0a:f6:13:b7:0b:9c:7c:d9:51:07:6e:07:
                    17:a2:93:76:88:d2:c2:20:ca:b6:72:79:80:ca:29:
                    3b:58:66:a6:96:38:15:4b:c4:ac:e7:bb:bf:26:bb:
                    15:3f:fa:21:bc:2d:fa:4a:3e:31:93:5e:df:58:70:
                    84:c0:3c:29:eb:1f:54:84:18:58:8c:02:67:c2:2c:
                    68:94:ab:2c:62:26:bf:e0:f6:cb:22:53:38:b9:16:
                    90:f6:26:ee:2f:b5:ca:21:f9:ce:d4:7d:ec:e3:0d:
                    95:54:e7:51:4e:26:6f:44:9a:fc:8e:7c:8a:a8:80:
                    62:24:38:c7:3a:a2:3a:fa:1d
                ASN1 OID: brainpoolP512r1
        X509v3 extensions:
            X509v3 Basic Constraints: critical
                CA:FALSE
            X509v3 CRL Distribution Points: 

                Full Name:
                  URI:http://sub-ca.dummydomain.tse-sim-sub.de/sub-ca.crl

            X509v3 Key Usage: critical
                Digital Signature
            X509v3 Private Key Usage Period: 
                Not Before: Dec  9 16:00:00 2019 GMT, Not After: Dec  9 16:00:00 2027 GMT
            X509v3 Subject Key Identifier: 
                2E:A7:42:97:98:6E:80:27:40:56:A9:19:C2:89:41:53:2B:52:22:53
    Signature Algorithm: ecdsa-with-SHA512
         30:81:85:02:41:00:94:63:9b:a6:f8:01:4f:1f:f9:d5:e1:1a:
         7d:47:e9:0b:35:90:34:c9:b8:c5:34:ac:2a:0a:3d:38:36:f9:
         ed:25:1b:cf:e2:f3:b3:2f:2e:c8:29:24:49:f5:06:fd:58:6b:
         42:2d:09:0a:c0:7b:f2:3a:8d:68:b8:c1:2a:10:01:0a:02:40:
         23:f6:f6:a3:86:da:e6:0e:6c:0d:78:b9:8b:31:29:55:08:35:
         10:67:d4:7d:5c:cf:bb:87:b1:0b:15:0f:f2:dc:f0:76:2c:4d:
         b1:cf:17:0d:44:8d:3f:3d:93:02:c7:61:75:8b:1b:c2:21:8a:
         2e:5b:47:2b:d3:f2:f0:c6:02:ff
-----BEGIN CERTIFICATE-----
MIIC5jCCAkqgAwIBAgIQOSXKb5WZN8wei0T5mIqcvDAKBggqhkjOPQQDBDA0MQsw
CQYDVQQGEwJERTEPMA0GA1UECgwGU3ViIENBMRQwEgYDVQQDDAtUU0UtU2ltLVN1
YjAeFw0xOTEyMTYxMDI2MTdaFw0zNzEyMTExMDI2MTdaMHcxCzAJBgNVBAYTAkRF
MR0wGwYDVQQKDBRUU0UtU2ltLU1hbnVmYWN0dXJlcjEWMBQGA1UEAwwNVFNFLVNp
bXVsYXRvcjEMMAoGA1UECAwDTlJXMSMwIQYDVQQLDBpUU0UtU2ltLURldmVsb3Bt
ZW50LUJyYW5jaDCBmzAUBgcqhkjOPQIBBgkrJAMDAggBAQ0DgYIABGIMCvYTtwuc
fNlRB24HF6KTdojSwiDKtnJ5gMopO1hmppY4FUvErOe7vya7FT/6Ibwt+ko+MZNe
31hwhMA8KesfVIQYWIwCZ8IsaJSrLGImv+D2yyJTOLkWkPYm7i+1yiH5ztR97OMN
lVTnUU4mb0Sa/I58iqiAYiQ4xzqiOvodo4G3MIG0MAwGA1UdEwEB/wQCMAAwRAYD
VR0fBD0wOzA5oDegNYYzaHR0cDovL3N1Yi1jYS5kdW1teWRvbWFpbi50c2Utc2lt
LXN1Yi5kZS9zdWItY2EuY3JsMA4GA1UdDwEB/wQEAwIHgDAvBgNVHRAEKDAmoBEY
DzIwMTkxMjA5MTYwMDAwWqERGA8yMDI3MTIwOTE2MDAwMFowHQYDVR0OBBYEFC6n
QpeYboAnQFapGcKJQVMrUiJTMAoGCCqGSM49BAMEA4GJADCBhQJBAJRjm6b4AU8f
+dXhGn1H6Qs1kDTJuMU0rCoKPTg2+e0lG8/i87MvLsgpJEn1Bv1Ya0ItCQrAe/I6
jWi4wSoQAQoCQCP29qOG2uYObA14uYsxKVUINRBn1H1cz7uHsQsVD/Lc8HYsTbHP
Fw1EjT89kwLHYXWLG8Ihii5bRyvT8vDGAv8=
-----END CERTIFICATE-----
