Certificate:
    Data:
        Version: 3 (0x2)
        Serial Number:
            18:0a:6c:0b:e0:d2:84:86:4d:0d:46:eb:9c:21:41:1b
        Signature Algorithm: ecdsa-with-SHA512
        Issuer: C=DE, O=Root CA, CN=TSE-Sim-Root
        Validity
            Not Before: Dec  9 14:12:22 2019 GMT
            Not After : Dec  3 14:12:22 2041 GMT
        Subject: C=DE, O=Root CA, CN=TSE-Sim-Root
        Subject Public Key Info:
            Public Key Algorithm: id-ecPublicKey
                Public-Key: (512 bit)
                pub:
                    04:8f:a5:9e:32:3f:31:67:17:af:e8:a7:d7:7c:34:
                    eb:6b:5d:d8:fb:a7:c8:e2:c0:9b:67:41:5c:18:77:
                    4f:f4:f4:b4:ee:36:a6:1a:5d:37:69:0c:07:9e:e9:
                    a7:91:77:57:46:54:f9:8f:cc:c5:03:95:f5:76:e5:
                    33:2a:ac:c5:67:1f:7a:a7:f6:49:01:28:7a:ff:03:
                    4c:9d:91:d6:eb:e2:e3:fa:08:cd:a9:c2:58:4f:2f:
                    15:ba:c0:01:31:de:0a:ba:6d:55:c5:44:61:53:42:
                    bd:cf:17:33:aa:68:97:6f:90:26:46:6e:e6:2f:47:
                    91:5a:24:88:bf:60:7c:15:6f
                ASN1 OID: brainpoolP512r1
        X509v3 extensions:
            X509v3 Basic Constraints: critical
                CA:TRUE, pathlen:1
            X509v3 CRL Distribution Points: 

                Full Name:
                  URI:http://root-ca.dummydomain.tse-sim-root.de/root-ca.crl

            X509v3 Key Usage: critical
                Certificate Sign, CRL Sign
            X509v3 Private Key Usage Period: 
                Not Before: Dec  9 00:00:00 2019 GMT, Not After: Dec  9 00:00:00 2021 GMT
            X509v3 Subject Key Identifier: 
                93:19:33:61:7C:5B:D5:8B:17:19:BC:E7:E6:D6:8E:AF:03:11:79:A8
    Signature Algorithm: ecdsa-with-SHA512
         30:81:85:02:41:00:98:06:c1:3b:6c:38:a9:dd:94:f2:62:78:
         3d:69:d8:ee:fa:9c:62:99:52:5d:6c:87:74:76:ef:de:8e:b7:
         f7:b9:49:54:cf:3b:f5:ab:2a:58:dd:60:fb:3d:37:72:64:5c:
         d9:50:b3:98:fe:79:11:5d:fd:79:88:01:4f:9e:81:24:02:40:
         29:64:0c:df:10:d9:a6:75:e6:c4:f7:50:c9:4a:ca:19:1b:b1:
         c8:2b:9a:59:7f:73:66:54:bf:03:f2:a7:9d:b2:2b:6c:1d:ff:
         e8:24:14:c6:77:bb:96:e1:d6:eb:c8:8c:7f:49:e4:5f:08:9c:
         bb:ab:1b:a1:76:d4:78:a8:15:28
-----BEGIN CERTIFICATE-----
MIICsDCCAhSgAwIBAgIQGApsC+DShIZNDUbrnCFBGzAKBggqhkjOPQQDBDA2MQsw
CQYDVQQGEwJERTEQMA4GA1UECgwHUm9vdCBDQTEVMBMGA1UEAwwMVFNFLVNpbS1S
b290MB4XDTE5MTIwOTE0MTIyMloXDTQxMTIwMzE0MTIyMlowNjELMAkGA1UEBhMC
REUxEDAOBgNVBAoMB1Jvb3QgQ0ExFTATBgNVBAMMDFRTRS1TaW0tUm9vdDCBmzAU
BgcqhkjOPQIBBgkrJAMDAggBAQ0DgYIABI+lnjI/MWcXr+in13w062td2PunyOLA
m2dBXBh3T/T0tO42phpdN2kMB57pp5F3V0ZU+Y/MxQOV9XblMyqsxWcfeqf2SQEo
ev8DTJ2R1uvi4/oIzanCWE8vFbrAATHeCrptVcVEYVNCvc8XM6pol2+QJkZu5i9H
kVokiL9gfBVvo4HAMIG9MBIGA1UdEwEB/wQIMAYBAf8CAQEwRwYDVR0fBEAwPjA8
oDqgOIY2aHR0cDovL3Jvb3QtY2EuZHVtbXlkb21haW4udHNlLXNpbS1yb290LmRl
L3Jvb3QtY2EuY3JsMA4GA1UdDwEB/wQEAwIBBjAvBgNVHRAEKDAmoBEYDzIwMTkx
MjA5MDAwMDAwWqERGA8yMDIxMTIwOTAwMDAwMFowHQYDVR0OBBYEFJMZM2F8W9WL
Fxm85+bWjq8DEXmoMAoGCCqGSM49BAMEA4GJADCBhQJBAJgGwTtsOKndlPJieD1p
2O76nGKZUl1sh3R2796Ot/e5SVTPO/WrKljdYPs9N3JkXNlQs5j+eRFd/XmIAU+e
gSQCQClkDN8Q2aZ15sT3UMlKyhkbscgrmll/c2ZUvwPyp52yK2wd/+gkFMZ3u5bh
1uvIjH9J5F8InLurG6F21HioFSg=
-----END CERTIFICATE-----
